(lp0
(lp1
F-0.05058002471923828
aF-0.2269899845123291
aF-0.8298521041870117
aF1.7180380821228027
aF-0.05058002471923828
aF-0.1487560272216797
aF-0.9311800003051758
aF1.8945322036743164
aF-0.008992496877908707
aF-1.516520619392395
aa(lp2
F-0.05058002471923828
aF-0.2269899845123291
aF-0.8298521041870117
aF1.7180380821228027
aF-0.05058002471923828
aF-0.1487560272216797
aF-0.9311800003051758
aF1.8960661888122559
aF-0.006883446592837572
aF-1.5203558206558228
aa(lp3
F-0.05058002471923828
aF-0.2269899845123291
aF-0.8298521041870117
aF1.7165040969848633
aF-0.05058002471923828
aF-0.1487560272216797
aF-0.9311800003051758
aF1.8945322036743164
aF-0.006883446592837572
aF-1.520164132118225
aa(lp4
F-0.05058002471923828
aF-0.2269899845123291
aF-0.8298521041870117
aF1.7165040969848633
aF-0.05058002471923828
aF-0.1487560272216797
aF-0.9311800003051758
aF1.8945322036743164
aF-0.007075135130435228
aF-1.5199724435806274
aa(lp5
F-0.05058002471923828
aF-0.2269899845123291
aF-0.8298521041870117
aF1.7165040969848633
aF-0.05058002471923828
aF-0.1487560272216797
aF-0.9296460151672363
aF1.8945322036743164
aF-0.007266823668032885
aF-1.5199724435806274
aa(lp6
F-0.05058002471923828
aF-0.2269899845123291
aF-0.8298521041870117
aF1.7180380821228027
aF-0.05058002471923828
aF-0.1487560272216797
aF-0.9311800003051758
aF1.8945322036743164
aF-0.007266823668032885
aF-1.5197802782058716
aa(lp7
F-0.05058002471923828
aF-0.2269899845123291
aF-0.8298521041870117
aF1.7165040969848633
aF-0.05058002471923828
aF-0.1487560272216797
aF-0.9311800003051758
aF1.8945322036743164
aF-0.006883446592837572
aF-1.5216976404190063
aa(lp8
F-0.05058002471923828
aF-0.22852396965026855
aF-0.8298521041870117
aF1.7165040969848633
aF-0.05058002471923828
aF-0.1487560272216797
aF-0.9311800003051758
aF1.8960661888122559
aF-0.008992496877908707
aF-1.5134526491165161
aa(lp9
F-0.05058002471923828
aF-0.2269899845123291
aF-0.8298521041870117
aF1.7165040969848633
aF-0.05058002471923828
aF-0.1487560272216797
aF-0.9311800003051758
aF1.8960661888122559
aF-0.008992496877908707
aF-1.5161372423171997
aa(lp10
F-0.05058002471923828
aF-0.2269899845123291
aF-0.8298521041870117
aF1.7180380821228027
aF-0.05058002471923828
aF-0.1487560272216797
aF-0.9311800003051758
aF1.8945322036743164
aF-0.009951416403055191
aF-1.5161372423171997
aa(lp11
I0
aI0
aI0
aI0
aI0
aI0
aI0
aI0
aI0
aF-1.5707963267948966
aa(lp12
F0.0
aF0.0
aF0.0
aF0.0
aF0.0
aF0.0
aF0.0
aF0.0
aF0.0
aF-1.5707963267948966
aag12
ag12
ag12
ag12
ag12
ag12
ag12
ag12
ag12
ag12
a(lp13
I0
aI0
aI0
aI0
aI0
aI0
aI0
aI0
aI0
aF-1.5707963267948966
aa.