(lp0
(lp1
F0.06600403785705566
aF0.0061779022216796875
aF0.07980990409851074
aF2.0079641342163086
aF0.06600403785705566
aF0.0844118595123291
aF0.09506607055664062
aF1.8976001739501953
aF-0.018579784780740738
aF1.4904650449752808
aa(lp2
F0.06600403785705566
aF0.007711887359619141
aF0.07827591896057129
aF2.0079641342163086
aF0.06600403785705566
aF0.08594608306884766
aF0.09353208541870117
aF1.8976001739501953
aF-0.018579784780740738
aF1.490273356437683
aa(lp3
F0.06600403785705566
aF0.0061779022216796875
aF0.07827591896057129
aF2.0079641342163086
aF0.06600403785705566
aF0.08594608306884766
aF0.09506607055664062
aF1.8960661888122559
aF-0.018579784780740738
aF1.490273356437683
aa(lp4
F0.06600403785705566
aF0.007711887359619141
aF0.07827591896057129
aF2.009498119354248
aF0.06600403785705566
aF0.0844118595123291
aF0.09506607055664062
aF1.8976001739501953
aF-0.018771473318338394
aF1.4900816679000854
aa(lp5
F0.06600403785705566
aF0.0061779022216796875
aF0.07827591896057129
aF2.0079641342163086
aF0.06600403785705566
aF0.0844118595123291
aF0.09506607055664062
aF1.8960661888122559
aF-0.018771473318338394
aF1.4864386320114136
aa(lp6
F0.06600403785705566
aF0.0061779022216796875
aF0.07980990409851074
aF2.0079641342163086
aF0.06600403785705566
aF0.08594608306884766
aF0.09506607055664062
aF1.8960661888122559
aF-0.018579784780740738
aF1.4864386320114136
aa(lp7
F0.06600403785705566
aF0.0061779022216796875
aF0.07827591896057129
aF2.0079641342163086
aF0.06600403785705566
aF0.08594608306884766
aF0.09353208541870117
aF1.8976001739501953
aF-0.018579784780740738
aF1.4868220090866089
aa(lp8
F0.06600403785705566
aF0.0061779022216796875
aF0.07827591896057129
aF2.0079641342163086
aF0.06600403785705566
aF0.08594608306884766
aF0.09353208541870117
aF1.8960661888122559
aF-0.02068883553147316
aF1.4862464666366577
aa(lp9
F0.06600403785705566
aF0.007711887359619141
aF0.07827591896057129
aF2.0079641342163086
aF0.06600403785705566
aF0.0844118595123291
aF0.09353208541870117
aF1.8976001739501953
aF-0.01973039284348488
aF1.4801105260849
aa(lp10
F0.06600403785705566
aF0.0061779022216796875
aF0.07827591896057129
aF2.009498119354248
aF0.06600403785705566
aF0.0844118595123291
aF0.09506607055664062
aF1.8960661888122559
aF-0.01973039284348488
aF1.4801105260849
aa(lp11
F0.0
aF0.0
aF0.0
aF0.0
aF0.0
aF0.0
aF0.0
aF0.0
aF0.0
aF1.5707963267948966
aag11
ag11
ag11
ag11
ag11
ag11
ag11
ag11
a.