(lp0
(lp1
F0.0061779022216796875
aF-0.03217196464538574
aF-0.9970581531524658
aF2.1414220333099365
aF0.0061779022216796875
aF0.029187917709350586
aF-0.995607852935791
aF2.1415061950683594
aF-0.012217044830322266
aF0.07155847549438477
aa(lp2
F0.0061779022216796875
aF-0.03217196464538574
aF-0.9970581531524658
aF2.1414220333099365
aF0.0061779022216796875
aF0.027653932571411133
aF-0.995607852935791
aF2.1415061950683594
aF-0.012217044830322266
aF0.07155847549438477
aa(lp3
F0.0061779022216796875
aF-0.033705949783325195
aF-0.9970581531524658
aF2.1414220333099365
aF0.0061779022216796875
aF0.027653932571411133
aF-0.995607852935791
aF2.1415061950683594
aF-0.013962268829345703
aF0.0733036994934082
aa(lp4
F0.0061779022216796875
aF-0.033705949783325195
aF-0.9970581531524658
aF2.142956018447876
aF0.0061779022216796875
aF0.027653932571411133
aF-0.995607852935791
aF2.1415061950683594
aF-0.015707969665527344
aF0.06981277465820312
aa(lp5
F0.004643917083740234
aF-0.033705949783325195
aF-0.9970581531524658
aF2.1414220333099365
aF0.004643917083740234
aF0.029187917709350586
aF-0.995607852935791
aF2.1415061950683594
aF-0.013962268829345703
aF0.0733036994934082
aa(lp6
F0.0061779022216796875
aF-0.033705949783325195
aF-0.9970581531524658
aF2.1414220333099365
aF0.0061779022216796875
aF0.027653932571411133
aF-0.995607852935791
aF2.1415061950683594
aF-0.013962268829345703
aF0.0733036994934082
aa(lp7
F0.004643917083740234
aF-0.033705949783325195
aF-0.9970581531524658
aF2.1414220333099365
aF0.004643917083740234
aF0.027653932571411133
aF-0.9971418380737305
aF2.1415061950683594
aF-0.013962268829345703
aF0.07155847549438477
aa(lp8
F0.004643917083740234
aF-0.03217196464538574
aF-0.9970581531524658
aF2.1414220333099365
aF0.004643917083740234
aF0.027653932571411133
aF-0.995607852935791
aF2.1415061950683594
aF-0.013962268829345703
aF0.06981277465820312
aa(lp9
F0.0061779022216796875
aF-0.03217196464538574
aF-0.9970581531524658
aF2.1414220333099365
aF0.0061779022216796875
aF0.027653932571411133
aF-0.995607852935791
aF2.143040180206299
aF-0.013962268829345703
aF0.06981277465820312
aa(lp10
F0.004643917083740234
aF-0.033705949783325195
aF-0.9970581531524658
aF2.1414220333099365
aF0.004643917083740234
aF0.029187917709350586
aF-0.9971418380737305
aF2.1415061950683594
aF-0.015707969665527344
aF0.0733036994934082
aa(lp11
F0.004643917083740234
aF-0.033705949783325195
aF-0.9970581531524658
aF2.142956018447876
aF0.004643917083740234
aF0.027653932571411133
aF-0.995607852935791
aF2.1415061950683594
aF-0.012217044830322266
aF0.06981277465820312
aa(lp12
F0.004643917083740234
aF-0.033705949783325195
aF-0.9970581531524658
aF2.1414220333099365
aF0.004643917083740234
aF0.027653932571411133
aF-0.995607852935791
aF2.1415061950683594
aF-0.012217044830322266
aF0.06981277465820312
aa(lp13
F0.0061779022216796875
aF-0.033705949783325195
aF-0.9970581531524658
aF2.1414220333099365
aF0.0061779022216796875
aF0.027653932571411133
aF-0.995607852935791
aF2.1415061950683594
aF-0.015707969665527344
aF0.06981277465820312
aa(lp14
F0.0061779022216796875
aF-0.033705949783325195
aF-0.9970581531524658
aF2.1414220333099365
aF0.0061779022216796875
aF0.029187917709350586
aF-0.995607852935791
aF2.1415061950683594
aF-0.01745319366455078
aF0.07155847549438477
aa(lp15
F0.0061779022216796875
aF-0.03217196464538574
aF-0.9970581531524658
aF2.1414220333099365
aF0.0061779022216796875
aF0.027653932571411133
aF-0.995607852935791
aF2.1415061950683594
aF-0.013962268829345703
aF0.0733036994934082
aa(lp16
F0.0061779022216796875
aF-0.033705949783325195
aF-0.9970581531524658
aF2.1414220333099365
aF0.0061779022216796875
aF0.029187917709350586
aF-0.995607852935791
aF2.1415061950683594
aF-0.013962268829345703
aF0.07155847549438477
aa(lp17
F0.0061779022216796875
aF-0.033705949783325195
aF-0.9970581531524658
aF2.1414220333099365
aF0.0061779022216796875
aF0.027653932571411133
aF-0.995607852935791
aF2.1415061950683594
aF-0.012217044830322266
aF0.07155847549438477
aa(lp18
F0.004643917083740234
aF-0.03217196464538574
aF-0.9970581531524658
aF2.1414220333099365
aF0.004643917083740234
aF0.029187917709350586
aF-0.995607852935791
aF2.1415061950683594
aF-0.015707969665527344
aF0.06981277465820312
aa(lp19
F0.004643917083740234
aF-0.033705949783325195
aF-0.9970581531524658
aF2.1414220333099365
aF0.004643917083740234
aF0.027653932571411133
aF-0.995607852935791
aF2.1415061950683594
aF-0.013962268829345703
aF0.07155847549438477
aa(lp20
F0.004643917083740234
aF-0.03217196464538574
aF-0.9970581531524658
aF2.1414220333099365
aF0.004643917083740234
aF0.029187917709350586
aF-0.995607852935791
aF2.1415061950683594
aF-0.015707969665527344
aF0.06981277465820312
aa(lp21
F0.004643917083740234
aF-0.033705949783325195
aF-0.9970581531524658
aF2.1414220333099365
aF0.004643917083740234
aF0.027653932571411133
aF-0.995607852935791
aF2.1415061950683594
aF-0.01745319366455078
aF0.0733036994934082
aa(lp22
F0.004643917083740234
aF-0.033705949783325195
aF-0.9970581531524658
aF2.1414220333099365
aF0.004643917083740234
aF0.029187917709350586
aF-0.995607852935791
aF2.1415061950683594
aF-0.013962268829345703
aF0.07504892349243164
aa(lp23
F0.0061779022216796875
aF-0.033705949783325195
aF-0.9970581531524658
aF2.1414220333099365
aF0.0061779022216796875
aF0.027653932571411133
aF-0.995607852935791
aF2.1415061950683594
aF-0.015707969665527344
aF0.0733036994934082
aa(lp24
F0.004643917083740234
aF-0.033705949783325195
aF-0.9970581531524658
aF2.1414220333099365
aF0.004643917083740234
aF0.027653932571411133
aF-0.995607852935791
aF2.1415061950683594
aF-0.013962268829345703
aF0.07504892349243164
aa(lp25
F0.004643917083740234
aF-0.03217196464538574
aF-0.9970581531524658
aF2.1414220333099365
aF0.004643917083740234
aF0.027653932571411133
aF-0.995607852935791
aF2.143040180206299
aF-0.015707969665527344
aF0.06981277465820312
aa(lp26
F0.0061779022216796875
aF-0.03217196464538574
aF-0.9970581531524658
aF2.1414220333099365
aF0.0061779022216796875
aF0.027653932571411133
aF-0.995607852935791
aF2.1415061950683594
aF-0.013962268829345703
aF0.0733036994934082
aa(lp27
F0.004643917083740234
aF-0.03217196464538574
aF-0.9970581531524658
aF2.1414220333099365
aF0.004643917083740234
aF0.029187917709350586
aF-0.995607852935791
aF2.1415061950683594
aF-0.015707969665527344
aF0.0733036994934082
aa(lp28
F0.004643917083740234
aF-0.03217196464538574
aF-0.9970581531524658
aF2.1414220333099365
aF0.004643917083740234
aF0.027653932571411133
aF-0.995607852935791
aF2.1415061950683594
aF-0.015707969665527344
aF0.06981277465820312
aa(lp29
F0.004643917083740234
aF-0.033705949783325195
aF-0.9970581531524658
aF2.1414220333099365
aF0.0061779022216796875
aF0.029187917709350586
aF-0.995607852935791
aF2.1415061950683594
aF-0.015707969665527344
aF0.07155847549438477
aa(lp30
F0.004643917083740234
aF-0.033705949783325195
aF-0.9970581531524658
aF2.1414220333099365
aF0.0061779022216796875
aF0.029187917709350586
aF-0.995607852935791
aF2.1415061950683594
aF-0.012217044830322266
aF0.06981277465820312
aa.