(lp0
(lp1
F-0.40953612327575684
aF-0.19477605819702148
aF-1.579978108406067
aF2.136820077896118
aF-0.40953612327575684
aF0.2853660583496094
aF-1.6613640785217285
aF2.13997220993042
aF-0.02792501449584961
aF0.9896016120910645
aa(lp2
F-0.40953612327575684
aF-0.19631004333496094
aF-1.5815120935440063
aF2.136820077896118
aF-0.40953612327575684
aF0.2853660583496094
aF-1.6613640785217285
aF2.13997220993042
aF-0.03490638732910156
aF0.9913468360900879
aa(lp3
F-0.40953612327575684
aF-0.19477605819702148
aF-1.5815120935440063
aF2.136820077896118
aF-0.40953612327575684
aF0.2853660583496094
aF-1.6613640785217285
aF2.13997220993042
aF-0.03490638732910156
aF0.9948372840881348
aa(lp4
F-0.40953612327575684
aF-0.19477605819702148
aF-1.579978108406067
aF2.136820077896118
aF-0.40953612327575684
aF0.2853660583496094
aF-1.6613640785217285
aF2.13997220993042
aF-0.033161163330078125
aF0.9948372840881348
aa(lp5
F-0.40953612327575684
aF-0.19477605819702148
aF-1.579978108406067
aF2.136820077896118
aF-0.40953612327575684
aF0.2853660583496094
aF-1.662898063659668
aF2.13997220993042
aF-0.033161163330078125
aF0.9843654632568359
aa(lp6
F-0.40953612327575684
aF-0.19631004333496094
aF-1.579978108406067
aF2.136820077896118
aF-0.40953612327575684
aF0.2853660583496094
aF-1.6613640785217285
aF2.13997220993042
aF-0.033161163330078125
aF0.9843654632568359
aa(lp7
F-0.40953612327575684
aF-0.19477605819702148
aF-1.579978108406067
aF2.136820077896118
aF-0.40953612327575684
aF0.2853660583496094
aF-1.6613640785217285
aF2.13997220993042
aF-0.033161163330078125
aF0.9843654632568359
aa(lp8
F-0.40953612327575684
aF-0.19477605819702148
aF-1.579978108406067
aF2.136820077896118
aF-0.40953612327575684
aF0.2853660583496094
aF-1.6613640785217285
aF2.13997220993042
aF-0.033161163330078125
aF0.9843654632568359
aa(lp9
F-0.40953612327575684
aF-0.19631004333496094
aF-1.579978108406067
aF2.136820077896118
aF-0.40953612327575684
aF0.2853660583496094
aF-1.6613640785217285
aF2.13997220993042
aF-0.033161163330078125
aF0.9843654632568359
aa(lp10
F-0.40953612327575684
aF-0.19477605819702148
aF-1.579978108406067
aF2.136820077896118
aF-0.40953612327575684
aF0.2853660583496094
aF-1.6613640785217285
aF2.13997220993042
aF-0.033161163330078125
aF0.9861106872558594
aa.