(lp0
(lp1
F0.2055978775024414
aF-0.23926210403442383
aF-0.2438640594482422
aF-0.03072190284729004
aF0.2055978775024414
aF-0.13955211639404297
aF-4.1961669921875e-05
aF-0.13341593742370605
aF-3.054325580596924
aF-0.02094411849975586
aa(lp2
F0.2055978775024414
aF-0.23926210403442383
aF-0.2438640594482422
aF-0.03072190284729004
aF0.2055978775024414
aF-0.13955211639404297
aF-4.1961669921875e-05
aF-0.13341593742370605
aF-3.054325580596924
aF-0.02094411849975586
aa(lp3
F0.2055978775024414
aF-0.23926210403442383
aF-0.2438640594482422
aF-0.03072190284729004
aF0.2055978775024414
aF-0.13955211639404297
aF-4.1961669921875e-05
aF-0.13341593742370605
aF-3.054325580596924
aF-0.02094411849975586
aa(lp4
F0.2055978775024414
aF-0.23926210403442383
aF-0.2438640594482422
aF-0.03072190284729004
aF0.2055978775024414
aF-0.13955211639404297
aF-4.1961669921875e-05
aF-0.13341593742370605
aF-3.0525803565979004
aF-0.02094411849975586
aa(lp5
F0.2055978775024414
aF-0.24079608917236328
aF-0.2438640594482422
aF-0.03072190284729004
aF0.2055978775024414
aF-0.13955211639404297
aF-4.1961669921875e-05
aF-0.13341593742370605
aF-3.0525803565979004
aF-0.02094411849975586
aa(lp6
F0.2055978775024414
aF-0.24079608917236328
aF-0.2438640594482422
aF-0.03072190284729004
aF0.2055978775024414
aF-0.13955211639404297
aF-4.1961669921875e-05
aF-0.13341593742370605
aF-3.054325580596924
aF-0.02094411849975586
aa(lp7
F0.2055978775024414
aF-0.23926210403442383
aF-0.2438640594482422
aF-0.03072190284729004
aF0.2055978775024414
aF-0.13955211639404297
aF-4.1961669921875e-05
aF-0.13341593742370605
aF-3.054325580596924
aF-0.02094411849975586
aa(lp8
F0.2055978775024414
aF-0.24079608917236328
aF-0.2438640594482422
aF-0.03072190284729004
aF0.2055978775024414
aF-0.13955211639404297
aF-4.1961669921875e-05
aF-0.13341593742370605
aF-3.0525803565979004
aF-0.02094411849975586
aa(lp9
F0.2055978775024414
aF-0.24079608917236328
aF-0.2438640594482422
aF-0.03072190284729004
aF0.2055978775024414
aF-0.13955211639404297
aF-4.1961669921875e-05
aF-0.13341593742370605
aF-3.0525803565979004
aF-0.02094411849975586
aa(lp10
F0.2055978775024414
aF-0.24079608917236328
aF-0.2438640594482422
aF-0.03072190284729004
aF0.2055978775024414
aF-0.13955211639404297
aF-4.1961669921875e-05
aF-0.13341593742370605
aF-3.0525803565979004
aF-0.02094411849975586
aa.