(lp0
(lp1
F0.3037738800048828
aF0.015382050536572933
aF0.42035794258117676
aF1.9818861484527588
aF0.3037738800048828
aF-0.01683211326599121
aF0.5199840068817139
aF1.7119860649108887
aF0.0
aF-0.08726692199707031
aa(lp2
F0.3037738800048828
aF0.015382050536572933
aF0.42035794258117676
aF1.9818861484527588
aF0.3037738800048828
aF-0.01683211326599121
aF0.5199840068817139
aF1.7119860649108887
aF0.0
aF-0.08726692199707031
aa(lp3
F0.3037738800048828
aF0.013848066329956055
aF0.42035794258117676
aF1.9818861484527588
aF0.3037738800048828
aF-0.01683211326599121
aF0.5199840068817139
aF1.7119860649108887
aF0.0
aF-0.08726692199707031
aa(lp4
F0.3037738800048828
aF0.015382050536572933
aF0.42035794258117676
aF1.9818861484527588
aF0.3037738800048828
aF-0.01683211326599121
aF0.5199840068817139
aF1.7119860649108887
aF0.0
aF-0.08726692199707031
aa(lp5
F0.3037738800048828
aF0.015382050536572933
aF0.42035794258117676
aF1.9818861484527588
aF0.3037738800048828
aF-0.01683211326599121
aF0.5199840068817139
aF1.7119860649108887
aF0.0
aF-0.08726692199707031
aa(lp6
F0.3037738800048828
aF0.015382050536572933
aF0.42035794258117676
aF1.9818861484527588
aF0.3037738800048828
aF-0.01683211326599121
aF0.5199840068817139
aF1.7119860649108887
aF0.0
aF-0.08726692199707031
aa(lp7
F0.3037738800048828
aF0.015382050536572933
aF0.42035794258117676
aF1.9818861484527588
aF0.3037738800048828
aF-0.01683211326599121
aF0.5199840068817139
aF1.7119860649108887
aF0.0
aF-0.08726692199707031
aa(lp8
F0.3037738800048828
aF0.015382050536572933
aF0.42035794258117676
aF1.9818861484527588
aF0.3037738800048828
aF-0.01683211326599121
aF0.5199840068817139
aF1.7119860649108887
aF0.0
aF-0.08726692199707031
aa(lp9
F0.3037738800048828
aF0.015382050536572933
aF0.42035794258117676
aF1.9818861484527588
aF0.3037738800048828
aF-0.01683211326599121
aF0.5199840068817139
aF1.7119860649108887
aF0.0
aF-0.08726692199707031
aa(lp10
F0.3037738800048828
aF0.015382050536572933
aF0.42035794258117676
aF1.9818861484527588
aF0.3037738800048828
aF-0.01683211326599121
aF0.5199840068817139
aF1.7119860649108887
aF0.0
aF-0.08726692199707031
aa.