(lp0
(lp1
F0.004643917083740234
aF-0.3619821071624756
aF-1.4741320610046387
aF2.142956018447876
aF0.004643917083740234
aF-0.11040592193603516
aF-0.8713541030883789
aF1.5708580017089844
aF-0.6527528762817383
aF0.0820302963256836
aa(lp2
F0.004643917083740234
aF-0.3619821071624756
aF-1.4741320610046387
aF2.1414220333099365
aF0.004643917083740234
aF-0.11040592193603516
aF-0.8713541030883789
aF1.5708580017089844
aF-0.6544981002807617
aF0.0820302963256836
aa(lp3
F0.004643917083740234
aF-0.3619821071624756
aF-1.4741320610046387
aF2.1414220333099365
aF0.004643917083740234
aF-0.11040592193603516
aF-0.8713541030883789
aF1.5708580017089844
aF-0.6544981002807617
aF0.08377552032470703
aa(lp4
F0.004643917083740234
aF-0.3619821071624756
aF-1.4741320610046387
aF2.1414220333099365
aF0.004643917083740234
aF-0.11040592193603516
aF-0.8713541030883789
aF1.5708580017089844
aF-0.6544981002807617
aF0.08028507232666016
aa(lp5
F0.004643917083740234
aF-0.3619821071624756
aF-1.4741320610046387
aF2.1414220333099365
aF0.004643917083740234
aF-0.11040592193603516
aF-0.8713541030883789
aF1.5708580017089844
aF-0.6544981002807617
aF0.08028507232666016
aa(lp6
F0.004643917083740234
aF-0.3619821071624756
aF-1.4741320610046387
aF2.1414220333099365
aF0.004643917083740234
aF-0.11040592193603516
aF-0.8713541030883789
aF1.5708580017089844
aF-0.6527528762817383
aF0.08377552032470703
aa(lp7
F0.004643917083740234
aF-0.3619821071624756
aF-1.4741320610046387
aF2.1414220333099365
aF0.004643917083740234
aF-0.11040592193603516
aF-0.8713541030883789
aF1.5708580017089844
aF-0.6527528762817383
aF0.08377552032470703
aa(lp8
F0.004643917083740234
aF-0.3619821071624756
aF-1.4741320610046387
aF2.1414220333099365
aF0.004643917083740234
aF-0.11040592193603516
aF-0.8713541030883789
aF1.5708580017089844
aF-0.6527528762817383
aF0.08377552032470703
aa(lp9
F0.004643917083740234
aF-0.3619821071624756
aF-1.4741320610046387
aF2.1414220333099365
aF0.004643917083740234
aF-0.11040592193603516
aF-0.8713541030883789
aF1.5708580017089844
aF-0.6527528762817383
aF0.0820302963256836
aa(lp10
F0.004643917083740234
aF-0.3619821071624756
aF-1.4741320610046387
aF2.1414220333099365
aF0.004643917083740234
aF-0.11040592193603516
aF-0.8713541030883789
aF1.5708580017089844
aF-0.6527528762817383
aF0.0820302963256836
aa(lp11
F0.14730596542358398
aF0.6796040534973145
aF-1.4189081192016602
aF-0.11202406883239746
aF0.14730596542358398
aF0.3697359561920166
aF-0.7332940101623535
aF0.052197933197021484
aF-1.3997540473937988
aF-0.06981325149536133
aa(lp12
F-0.36965203285217285
aF-0.3512439727783203
aF-0.29755401611328125
aF-0.12889790534973145
aF-0.36965203285217285
aF0.1994619369506836
aF0.3880600929260254
aF0.04912996292114258
aF-1.3892817497253418
aF0.07853937149047852
aa(lp13
F-0.3711860179901123
aF-0.3512439727783203
aF-0.2990880012512207
aF-0.12889790534973145
aF-0.3711860179901123
aF0.1994619369506836
aF0.3880600929260254
aF0.04912996292114258
aF-1.3945178985595703
aF0.07853937149047852
aa(lp14
F-0.3711860179901123
aF-0.3512439727783203
aF-0.29755401611328125
aF-0.12889790534973145
aF-0.3711860179901123
aF0.1994619369506836
aF0.3880600929260254
aF0.04912996292114258
aF-1.3945178985595703
aF0.07155847549438477
aa(lp15
F0.0614018440246582
aF-0.29448604583740234
aF-0.09660005569458008
aF-0.13196587562561035
aF0.0614018440246582
aF-0.11807609349489212
aF0.25153398513793945
aF0.047595977783203125
aF-1.2915434837341309
aF0.21292972564697266
aa(lp16
F0.05986785888671875
aF-0.29448604583740234
aF-0.09660005569458008
aF-0.1304318904876709
aF0.05986785888671875
aF-0.11807609349489212
aF0.25
aF0.04912996292114258
aF-1.281071662902832
aF0.22165679931640625
aa(lp17
F-0.22238802909851074
aF-0.22238802909851074
aF-0.11654210090637207
aF-0.1304318904876709
aF-0.22238802909851074
aF0.03992605209350586
aF0.4724299907684326
aF0.047595977783203125
aF-1.2426743507385254
aF-0.2373647689819336
aa(lp18
F0.0353238582611084
aF-0.30675792694091797
aF-0.5859460830688477
aF1.4204421043395996
aF0.0353238582611084
aF-0.18710613250732422
aF-0.4050178527832031
aF1.2809319496154785
aF-1.3369221687316895
aF0.00698089599609375
aa(lp19
F0.0353238582611084
aF-0.30675792694091797
aF-0.5859460830688477
aF1.4204421043395996
aF0.0353238582611084
aF-0.18710613250732422
aF-0.4050178527832031
aF1.2809319496154785
aF-1.338667392730713
aF0.0017452239990234375
aa(lp20
F0.0353238582611084
aF-0.30675792694091797
aF-0.5859460830688477
aF1.4204421043395996
aF0.0353238582611084
aF-0.18710613250732422
aF-0.4050178527832031
aF1.2809319496154785
aF-1.338667392730713
aF0.003490447998046875
aa.