(lp0
(lp1
F0.10588788986206055
aF0.33905601501464844
aF-0.49083805084228516
aF-0.13196587562561035
aF0.10588788986206055
aF0.3559298515319824
aF-0.6750020980834961
aF0.052197933197021484
aF1.3264503479003906
aF0.08901166915893555
aa(lp2
F0.10588788986206055
aF0.33905601501464844
aF-0.49083805084228516
aF-0.13196587562561035
aF0.10588788986206055
aF0.3559298515319824
aF-0.6750020980834961
aF0.05066394805908203
aF1.3264503479003906
aF0.08901166915893555
aa(lp3
F0.10588788986206055
aF0.3405900001525879
aF-0.49083805084228516
aF-0.13196587562561035
aF0.10588788986206055
aF0.3559298515319824
aF-0.6750020980834961
aF0.052197933197021484
aF1.3264503479003906
aF0.08901166915893555
aa(lp4
F0.10588788986206055
aF0.33905601501464844
aF-0.49083805084228516
aF-0.13196587562561035
aF0.10588788986206055
aF0.357464075088501
aF-0.6734678745269775
aF0.052197933197021484
aF1.3159785270690918
aF0.09075689315795898
aa(lp5
F0.10588788986206055
aF0.33905601501464844
aF-0.49083805084228516
aF-0.13196587562561035
aF0.10588788986206055
aF0.357464075088501
aF-0.6750020980834961
aF0.052197933197021484
aF1.3159785270690918
aF0.09075689315795898
aa(lp6
F0.10588788986206055
aF0.3405900001525879
aF-0.49083805084228516
aF-0.13196587562561035
aF0.10588788986206055
aF0.3559298515319824
aF-0.6750020980834961
aF0.052197933197021484
aF1.3159785270690918
aF0.09075689315795898
aa(lp7
F0.10588788986206055
aF0.33905601501464844
aF-0.49083805084228516
aF-0.13196587562561035
aF0.10588788986206055
aF0.3559298515319824
aF-0.6750020980834961
aF0.052197933197021484
aF1.3159785270690918
aF0.09075689315795898
aa(lp8
F0.10588788986206055
aF0.3405900001525879
aF-0.4893040657043457
aF-0.13196587562561035
aF0.10588788986206055
aF0.3559298515319824
aF-0.6750020980834961
aF0.052197933197021484
aF1.3159785270690918
aF0.09075689315795898
aa(lp9
F0.10588788986206055
aF0.33905601501464844
aF-0.49083805084228516
aF-0.13196587562561035
aF0.10588788986206055
aF0.3559298515319824
aF-0.6750020980834961
aF0.052197933197021484
aF1.3159785270690918
aF0.08901166915893555
aa(lp10
F0.10588788986206055
aF0.33905601501464844
aF-0.49083805084228516
aF-0.13196587562561035
aF0.10588788986206055
aF0.3559298515319824
aF-0.6750020980834961
aF0.052197933197021484
aF1.3177237510681152
aF0.08901166915893555
aa(lp11
F-0.1579599380493164
aF-0.3251659870147705
aF-0.7562201023101807
aF2.083130121231079
aF-0.15949392318725586
aF0.10895586013793945
aF-1.540177822113037
aF2.1353702545166016
aF1.4346609115600586
aF0.1099553108215332
aa.