(lp0
(lp1
F-0.7562201023101807
aF0.7839159965515137
aF-1.630600094795227
aF0.2607381343841553
aF-0.7562201023101807
aF0.09975194931030273
aF-1.5708580017089844
aF0.1074218824505806
aF-0.03839683532714844
aF0.438077449798584
aa(lp2
F-0.7562201023101807
aF0.7839159965515137
aF-1.630600094795227
aF0.2607381343841553
aF-0.7562201023101807
aF0.09975194931030273
aF-1.5708580017089844
aF0.1074218824505806
aF-0.036651611328125
aF0.438077449798584
aa(lp3
F-0.7562201023101807
aF0.7839159965515137
aF-1.630600094795227
aF0.2607381343841553
aF-0.7562201023101807
aF0.09821796417236328
aF-1.5708580017089844
aF0.1074218824505806
aF-0.036651611328125
aF0.43633222579956055
aa(lp4
F-0.7562201023101807
aF0.7823820114135742
aF-1.630600094795227
aF0.2607381343841553
aF-0.7562201023101807
aF0.09975194931030273
aF-1.5708580017089844
aF0.1074218824505806
aF-0.03839683532714844
aF0.44156789779663086
aa(lp5
F-0.7562201023101807
aF0.7839159965515137
aF-1.630600094795227
aF0.2607381343841553
aF-0.7562201023101807
aF0.09975194931030273
aF-1.5708580017089844
aF0.1074218824505806
aF-0.03839683532714844
aF0.4398226737976074
aa(lp6
F-0.7562201023101807
aF0.7839159965515137
aF-1.630600094795227
aF0.2607381343841553
aF-0.7562201023101807
aF0.09821796417236328
aF-1.5708580017089844
aF0.1074218824505806
aF-0.03839683532714844
aF0.438077449798584
aa(lp7
F-0.7562201023101807
aF0.7823820114135742
aF-1.630600094795227
aF0.2607381343841553
aF-0.7562201023101807
aF0.09975194931030273
aF-1.5708580017089844
aF0.1074218824505806
aF-0.03839683532714844
aF0.44156789779663086
aa(lp8
F-0.7562201023101807
aF0.7823820114135742
aF-1.630600094795227
aF0.2607381343841553
aF-0.7562201023101807
aF0.09975194931030273
aF-1.5708580017089844
aF0.1074218824505806
aF-0.03839683532714844
aF0.4398226737976074
aa(lp9
F-0.7562201023101807
aF0.7839159965515137
aF-1.630600094795227
aF0.2607381343841553
aF-0.7562201023101807
aF0.09975194931030273
aF-1.5708580017089844
aF0.1074218824505806
aF-0.03839683532714844
aF0.4398226737976074
aa(lp10
F-0.7562201023101807
aF0.7839159965515137
aF-1.630600094795227
aF0.2607381343841553
aF-0.7562201023101807
aF0.09821796417236328
aF-1.5708580017089844
aF0.1074218824505806
aF-0.03839683532714844
aF0.43633222579956055
aa(lp11
F-0.7562201023101807
aF0.7823820114135742
aF-1.630600094795227
aF0.2607381343841553
aF-0.7562201023101807
aF0.09821796417236328
aF-1.5708580017089844
aF0.1074218824505806
aF-0.03839683532714844
aF0.43284130096435547
aa(lp12
F-0.7562201023101807
aF0.7823820114135742
aF-1.630600094795227
aF0.2607381343841553
aF-0.7562201023101807
aF0.09975194931030273
aF-1.569324016571045
aF0.1074218824505806
aF-0.041887760162353516
aF0.438077449798584
aa(lp13
F-0.7562201023101807
aF0.7839159965515137
aF-1.630600094795227
aF0.2607381343841553
aF-0.7562201023101807
aF0.09821796417236328
aF-1.569324016571045
aF0.1074218824505806
aF-0.041887760162353516
aF0.43284130096435547
aa(lp14
F-0.7562201023101807
aF0.7823820114135742
aF-1.630600094795227
aF0.2607381343841553
aF-0.7562201023101807
aF0.09975194931030273
aF-1.5708580017089844
aF0.1074218824505806
aF-0.04014253616333008
aF0.4345865249633789
aa(lp15
F-0.7577540874481201
aF0.7839159965515137
aF-1.630600094795227
aF0.2607381343841553
aF-0.7577540874481201
aF0.09975194931030273
aF-1.5708580017089844
aF0.1074218824505806
aF-0.04014253616333008
aF0.43633222579956055
aa(lp16
F-0.7562201023101807
aF0.7823820114135742
aF-1.630600094795227
aF0.2607381343841553
aF-0.7562201023101807
aF0.09821796417236328
aF-1.5708580017089844
aF0.1074218824505806
aF-0.04014253616333008
aF0.438077449798584
aa(lp17
F-0.7562201023101807
aF0.7823820114135742
aF-1.630600094795227
aF0.2607381343841553
aF-0.7562201023101807
aF0.09821796417236328
aF-1.5708580017089844
aF0.1074218824505806
aF-0.041887760162353516
aF0.43284130096435547
aa(lp18
F-0.7577540874481201
aF0.7839159965515137
aF-1.630600094795227
aF0.2607381343841553
aF-0.7577540874481201
aF0.09975194931030273
aF-1.5708580017089844
aF0.1074218824505806
aF-0.03839683532714844
aF0.4345865249633789
aa(lp19
F-0.7562201023101807
aF0.7823820114135742
aF-1.630600094795227
aF0.2607381343841553
aF-0.7562201023101807
aF0.09821796417236328
aF-1.5708580017089844
aF0.1074218824505806
aF-0.041887760162353516
aF0.4345865249633789
aa(lp20
F-0.6595780849456787
aF0.1595778465270996
aF-1.5354920625686646
aF1.5201520919799805
aF-0.6595780849456787
aF-0.06131792068481445
aF-1.4665460586547852
aF1.3607001304626465
aF-0.013962268829345703
aF-0.34906625747680664
aa(lp21
F-0.6595780849456787
aF0.1595778465270996
aF-1.5354920625686646
aF1.5201520919799805
aF-0.6595780849456787
aF-0.06131792068481445
aF-1.4665460586547852
aF1.3607001304626465
aF-0.012217044830322266
aF-0.34906625747680664
aa(lp22
F-0.6595780849456787
aF0.1595778465270996
aF-1.5354920625686646
aF1.5201520919799805
aF-0.6595780849456787
aF-0.06131792068481445
aF-1.4665460586547852
aF1.3607001304626465
aF-0.012217044830322266
aF-0.3508114814758301
aa(lp23
F-0.6503739356994629
aF-0.3052239418029785
aF-0.91115403175354
aF0.34050607681274414
aF-0.6503739356994629
aF-0.0030260086059570312
aF-0.8606162071228027
aF0.14117002487182617
aF-0.003490447998046875
aF-0.4066619873046875
aa(lp24
F-0.6503739356994629
aF-0.3052239418029785
aF-0.91115403175354
aF0.34050607681274414
aF-0.6503739356994629
aF-0.0030260086059570312
aF-0.8606162071228027
aF0.14117002487182617
aF-0.0052356719970703125
aF-0.411898136138916
aa(lp25
F-0.98785400390625
aF-0.3803901672363281
aF-0.5383920669555664
aF0.28374814987182617
aF-0.98785400390625
aF0.36820197105407715
aF-0.6059720516204834
aF0.4326300621032715
aF0.04188823699951172
aF-0.41364336013793945
aa(lp26
F-0.3128941059112549
aF-0.230057954788208
aF-1.6704840660095215
aF0.9663779735565186
aF-0.3128941059112549
aF0.0353238582611084
aF-1.6228026151657104
aF0.8299360275268555
aF0.025310691446065903
aF-0.16758745908737183
aa.