(lp0
(lp1
F4.1961669921875e-05
aF-0.007627964019775391
aF-0.2530679702758789
aF0.9004161357879639
aF4.1961669921875e-05
aF-0.007627964019775391
aF-0.5397986173629761
aF0.9572582244873047
aF0.007095034699887037
aF-0.01821630820631981
aa(lp2
F4.1961669921875e-05
aF-0.007627964019775391
aF-0.2530679702758789
aF0.9004161357879639
aF4.1961669921875e-05
aF-0.007627964019775391
aF-0.5397986173629761
aF0.9587922096252441
aF0.007670100312680006
aF-0.018407996743917465
aa(lp3
F4.1961669921875e-05
aF-0.007627964019775391
aF-0.2530679702758789
aF0.9004161357879639
aF4.1961669921875e-05
aF-0.007627964019775391
aF-0.5382646322250366
aF0.9572582244873047
aF0.0046021300368011
aF-0.01572340354323387
aa(lp4
F4.1961669921875e-05
aF-0.007627964019775391
aF-0.2530679702758789
aF0.9004161357879639
aF4.1961669921875e-05
aF-0.007627964019775391
aF-0.5382646322250366
aF0.9572582244873047
aF0.00575273809954524
aF-0.018791373819112778
aa(lp5
F4.1961669921875e-05
aF-0.007627964019775391
aF-0.2530679702758789
aF0.9004161357879639
aF4.1961669921875e-05
aF-0.007627964019775391
aF-0.5382646322250366
aF0.9572582244873047
aF0.005368884187191725
aF-0.021284278482198715
aa(lp6
F4.1961669921875e-05
aF-0.007627964019775391
aF-0.2530679702758789
aF0.9004161357879639
aF4.1961669921875e-05
aF-0.007627964019775391
aF-0.5397986173629761
aF0.9572582244873047
aF0.006327803712338209
aF-0.018024619668722153
aa(lp7
F4.1961669921875e-05
aF-0.007627964019775391
aF-0.2530679702758789
aF0.9004161357879639
aF4.1961669921875e-05
aF-0.007627964019775391
aF-0.5397986173629761
aF0.9572582244873047
aF0.008629020303487778
aF-0.01936691626906395
aa(lp8
F4.1961669921875e-05
aF-0.007627964019775391
aF-0.2530679702758789
aF0.9004161357879639
aF4.1961669921875e-05
aF-0.007627964019775391
aF-0.5397986173629761
aF0.9572582244873047
aF0.006711180787533522
aF-0.018407996743917465
aa(lp9
F4.1961669921875e-05
aF-0.007627964019775391
aF-0.2530679702758789
aF0.9004161357879639
aF4.1961669921875e-05
aF-0.007627964019775391
aF-0.5382646322250366
aF0.9572582244873047
aF0.00575273809954524
aF-0.018407996743917465
aa(lp10
F4.1961669921875e-05
aF-0.007627964019775391
aF-0.2530679702758789
aF0.9004161357879639
aF4.1961669921875e-05
aF-0.007627964019775391
aF-0.5397986173629761
aF0.9572582244873047
aF0.006711180787533522
aF-0.01744907721877098
aa(lp11
F4.1961669921875e-05
aF-0.007627964019775391
aF-0.2530679702758789
aF0.9004161357879639
aF4.1961669921875e-05
aF-0.007627964019775391
aF-0.5382646322250366
aF0.9572582244873047
aF0.0072867232374846935
aF-0.017257388681173325
aa(lp12
F4.1961669921875e-05
aF-0.007627964019775391
aF-0.2530679702758789
aF0.9004161357879639
aF4.1961669921875e-05
aF-0.007627964019775391
aF-0.5382646322250366
aF0.9572582244873047
aF0.004793818574398756
aF-0.01936691626906395
aa(lp13
F4.1961669921875e-05
aF-0.007627964019775391
aF-0.2530679702758789
aF0.9004161357879639
aF4.1961669921875e-05
aF-0.007627964019775391
aF-0.5382646322250366
aF0.9572582244873047
aF0.00747841177508235
aF-0.022434409707784653
aa(lp14
F4.1961669921875e-05
aF-0.007627964019775391
aF-0.2530679702758789
aF0.9004161357879639
aF4.1961669921875e-05
aF-0.007627964019775391
aF-0.5397986173629761
aF0.9572582244873047
aF0.002876456594094634
aF-0.01936691626906395
aa(lp15
F4.1961669921875e-05
aF-0.007627964019775391
aF-0.2530679702758789
aF0.9004161357879639
aF4.1961669921875e-05
aF-0.007627964019775391
aF-0.5397986173629761
aF0.9572582244873047
aF0.00575273809954524
aF-0.0164906345307827
aa(lp16
F4.1961669921875e-05
aF-0.007627964019775391
aF-0.2530679702758789
aF0.9004161357879639
aF4.1961669921875e-05
aF-0.007627964019775391
aF-0.5397986173629761
aF0.9572582244873047
aF0.00575273809954524
aF-0.01936691626906395
aa(lp17
F4.1961669921875e-05
aF-0.007627964019775391
aF-0.2530679702758789
aF0.9004161357879639
aF4.1961669921875e-05
aF-0.007627964019775391
aF-0.5397986173629761
aF0.9572582244873047
aF0.00575273809954524
aF-0.0164906345307827
aa(lp18
F4.1961669921875e-05
aF-0.007627964019775391
aF-0.2530679702758789
aF0.9004161357879639
aF4.1961669921875e-05
aF-0.007627964019775391
aF-0.5397986173629761
aF0.9572582244873047
aF0.00575273809954524
aF-0.015531715005636215
aa(lp19
F4.1961669921875e-05
aF-0.007627964019775391
aF-0.2530679702758789
aF0.9019501209259033
aF4.1961669921875e-05
aF-0.007627964019775391
aF-0.5382646322250366
aF0.9572582244873047
aF0.01016300544142723
aF-0.019750293344259262
aa(lp20
F4.1961669921875e-05
aF-0.007627964019775391
aF-0.2530679702758789
aF0.9004161357879639
aF4.1961669921875e-05
aF-0.007627964019775391
aF-0.5397986173629761
aF0.9572582244873047
aF0.008629020303487778
aF-0.02032535895705223
aa(lp21
F4.1961669921875e-05
aF-0.007627964019775391
aF-0.2530679702758789
aF0.9004161357879639
aF4.1961669921875e-05
aF-0.007627964019775391
aF-0.5382646322250366
aF0.9572582244873047
aF0.004218752961605787
aF-0.016682323068380356
aa(lp22
F4.1961669921875e-05
aF-0.007627964019775391
aF-0.2530679702758789
aF0.9004161357879639
aF4.1961669921875e-05
aF-0.007627964019775391
aF-0.5382646322250366
aF0.9572582244873047
aF0.008629020303487778
aF-0.018407996743917465
aa(lp23
F4.1961669921875e-05
aF-0.007627964019775391
aF-0.2530679702758789
aF0.9004161357879639
aF4.1961669921875e-05
aF-0.007627964019775391
aF-0.5397986173629761
aF0.9572582244873047
aF0.008629020303487778
aF-0.0164906345307827
aa(lp24
F4.1961669921875e-05
aF-0.007627964019775391
aF-0.2530679702758789
aF0.9004161357879639
aF4.1961669921875e-05
aF-0.007627964019775391
aF-0.5382646322250366
aF0.9572582244873047
aF0.00575273809954524
aF-0.018407996743917465
aa(lp25
F4.1961669921875e-05
aF-0.007627964019775391
aF-0.2530679702758789
aF0.9004161357879639
aF4.1961669921875e-05
aF-0.007627964019775391
aF-0.5382646322250366
aF0.9572582244873047
aF0.004793818574398756
aF-0.01994198188185692
aa(lp26
F4.1961669921875e-05
aF-0.007627964019775391
aF-0.2530679702758789
aF0.9004161357879639
aF4.1961669921875e-05
aF-0.007627964019775391
aF-0.5397986173629761
aF0.9572582244873047
aF0.007670100312680006
aF-0.01744907721877098
aa(lp27
F4.1961669921875e-05
aF-0.007627964019775391
aF-0.2530679702758789
aF0.9004161357879639
aF4.1961669921875e-05
aF-0.007627964019775391
aF-0.5382646322250366
aF0.9572582244873047
aF0.004793818574398756
aF-0.020708736032247543
aa(lp28
F4.1961669921875e-05
aF-0.007627964019775391
aF-0.2530679702758789
aF0.9004161357879639
aF4.1961669921875e-05
aF-0.007627964019775391
aF-0.5397986173629761
aF0.9572582244873047
aF0.004027064424008131
aF-0.019750293344259262
aa(lp29
F4.1961669921875e-05
aF-0.007627964019775391
aF-0.2530679702758789
aF0.9004161357879639
aF4.1961669921875e-05
aF-0.007627964019775391
aF-0.5397986173629761
aF0.9572582244873047
aF0.00575273809954524
aF-0.01744907721877098
aa(lp30
F4.1961669921875e-05
aF-0.007627964019775391
aF-0.2530679702758789
aF0.9004161357879639
aF4.1961669921875e-05
aF-0.007627964019775391
aF-0.5382646322250366
aF0.9572582244873047
aF0.006136115174740553
aF-0.017257388681173325
aa(lp31
F-0.022968053817749023
aF-0.024502038955688477
aF-0.23772811889648438
aF0.8958139419555664
aF-0.022968053817749023
aF-0.02143406867980957
aF-0.5152546167373657
aF0.941917896270752
aF-0.0339391864836216
aF0.07631523162126541
aa(lp32
F-0.19324207305908203
aF0.1304318904876709
aF-0.4693620204925537
aF0.9050180912017822
aF-0.19324207305908203
aF0.06753802299499512
aF-0.16703666746616364
aF0.9127721786499023
aF-0.003834549570456147
aF0.018215958029031754
aa(lp33
F-0.19324207305908203
aF0.1304318904876709
aF-0.47089600563049316
aF0.9065520763397217
aF-0.19324207305908203
aF0.06753802299499512
aF-0.16703666746616364
aF0.9127721786499023
aF-0.00402671517804265
aF0.018599335104227066
aa(lp34
F-0.19324207305908203
aF0.1304318904876709
aF-0.4693620204925537
aF0.9065520763397217
aF-0.19324207305908203
aF0.06753802299499512
aF-0.16703666746616364
aF0.9127721786499023
aF-0.004793469328433275
aF0.019366566091775894
aa(lp35
F-0.19324207305908203
aF0.1304318904876709
aF-0.47089600563049316
aF0.9065520763397217
aF-0.19324207305908203
aF0.06753802299499512
aF-0.1685706526041031
aF0.9112381935119629
aF-0.0049851578660309315
aF0.019366566091775894
aa(lp36
F-0.19324207305908203
aF0.12889790534973145
aF-0.4693620204925537
aF0.9065520763397217
aF-0.19324207305908203
aF0.06907200813293457
aF-0.1685706526041031
aF0.9127721786499023
aF-0.002876106882467866
aF0.017448727041482925
aa(lp37
F-0.19324207305908203
aF0.1304318904876709
aF-0.4693620204925537
aF0.9065520763397217
aF-0.19324207305908203
aF0.06753802299499512
aF-0.16703666746616364
aF0.9112381935119629
aF-0.003834549570456147
aF0.020325008779764175
aa(lp38
F-0.19324207305908203
aF0.1304318904876709
aF-0.4693620204925537
aF0.9065520763397217
aF-0.19324207305908203
aF0.06753802299499512
aF-0.16703666746616364
aF0.9112381935119629
aF-0.003834549570456147
aF0.02224237099289894
aa(lp39
F-0.19324207305908203
aF0.12889790534973145
aF-0.4693620204925537
aF0.9065520763397217
aF-0.19324207305908203
aF0.06753802299499512
aF-0.16703666746616364
aF0.9127721786499023
aF-0.006710831541568041
aF0.017448727041482925
aa(lp40
F-0.19324207305908203
aF0.12889790534973145
aF-0.47089600563049316
aF0.9065520763397217
aF-0.19324207305908203
aF0.06753802299499512
aF-0.16703666746616364
aF0.9112381935119629
aF-0.0019171873573213816
aF0.017448727041482925
aa(lp41
F-0.19324207305908203
aF0.12889790534973145
aF-0.4693620204925537
aF0.9065520763397217
aF-0.19324207305908203
aF0.06753802299499512
aF-0.16703666746616364
aF0.9112381935119629
aF-0.0019171873573213816
aF0.022434059530496597
aa(lp42
F-0.19324207305908203
aF0.1304318904876709
aF-0.4693620204925537
aF0.9065520763397217
aF-0.19324207305908203
aF0.06753802299499512
aF-0.16703666746616364
aF0.9127721786499023
aF-0.0011504332069307566
aF0.016490284353494644
aa(lp43
F-0.19477605819702148
aF0.12889790534973145
aF-0.4693620204925537
aF0.9065520763397217
aF-0.19477605819702148
aF0.06753802299499512
aF-0.16703666746616364
aF0.9127721786499023
aF-0.0009587446693331003
aF0.020325008779764175
aa(lp44
F-0.19324207305908203
aF0.12889790534973145
aF-0.4693620204925537
aF0.9065520763397217
aF-0.19324207305908203
aF0.06753802299499512
aF-0.16703666746616364
aF0.9112381935119629
aF-0.003067795420065522
aF0.0166819728910923
aa(lp45
F-0.19477605819702148
aF0.1304318904876709
aF-0.4693620204925537
aF0.9065520763397217
aF-0.19477605819702148
aF0.06753802299499512
aF-0.16703666746616364
aF0.9112381935119629
aF-0.003642861032858491
aF0.019174400717020035
aa(lp46
F-0.19477605819702148
aF0.12889790534973145
aF-0.47089600563049316
aF0.9065520763397217
aF-0.19477605819702148
aF0.06907200813293457
aF-0.1685706526041031
aF0.9112381935119629
aF-0.00575238885357976
aF0.022434059530496597
aa(lp47
F-0.19477605819702148
aF0.1304318904876709
aF-0.4693620204925537
aF0.9065520763397217
aF-0.19477605819702148
aF0.06753802299499512
aF-0.16703666746616364
aF0.9127721786499023
aF-0.00575238885357976
aF0.02013332024216652
aa(lp48
F-0.19324207305908203
aF0.1304318904876709
aF-0.47089600563049316
aF0.9065520763397217
aF-0.19324207305908203
aF0.06753802299499512
aF-0.16703666746616364
aF0.9127721786499023
aF-0.0019171873573213816
aF0.019366566091775894
aa(lp49
F-0.19477605819702148
aF0.1304318904876709
aF-0.47089600563049316
aF0.9065520763397217
aF-0.19477605819702148
aF0.06753802299499512
aF-0.16703666746616364
aF0.9127721786499023
aF-0.002876106882467866
aF0.01840764656662941
aa(lp50
F-0.027570009231567383
aF0.004643917083740234
aF-0.5736739635467529
aF0.9847860336303711
aF-0.027570009231567383
aF-0.004559993743896484
aF-0.2774845361709595
aF0.9173741340637207
aF-0.011696640402078629
aF0.044868770986795425
aa(lp51
F-0.029103994369506836
aF0.004643917083740234
aF-0.5736739635467529
aF0.9847860336303711
aF-0.027570009231567383
aF-0.004559993743896484
aF-0.2774845361709595
aF0.9173741340637207
aF-0.013614002615213394
aF0.040841881185770035
aa(lp52
F-0.2469320297241211
aF0.12582993507385254
aF-0.2868161201477051
aF0.9955241680145264
aF-0.2469320297241211
aF-0.12421202659606934
aF-0.30049455165863037
aF1.0109481811523438
aF0.015148337930440903
aF0.11869174987077713
aa.