(lp0
(lp1
F-0.23926210403442383
aF0.14883995056152344
aF0.21173405647277832
aF-0.09054803848266602
aF-0.23926210403442383
aF-0.056715965270996094
aF0.2118614763021469
aF-0.07665801048278809
aF-0.005560700315982103
aF-0.013422664254903793
aa(lp2
F-0.23926210403442383
aF0.14883995056152344
aF0.21173405647277832
aF-0.09054803848266602
aF-0.23926210403442383
aF-0.05824995040893555
aF0.21032725274562836
aF-0.07665801048278809
aF-0.005560700315982103
aF-0.013422664254903793
aa(lp3
F-0.23926210403442383
aF0.14883995056152344
aF0.21173405647277832
aF-0.09054803848266602
aF-0.23926210403442383
aF-0.05824995040893555
aF0.2118614763021469
aF-0.07665801048278809
aF-0.005560700315982103
aF-0.013422664254903793
aa(lp4
F-0.23926210403442383
aF0.14883995056152344
aF0.21173405647277832
aF-0.09054803848266602
aF-0.23926210403442383
aF-0.05824995040893555
aF0.21032725274562836
aF-0.07665801048278809
aF-0.00575238885357976
aF-0.013422664254903793
aa(lp5
F-0.23926210403442383
aF0.14883995056152344
aF0.21173405647277832
aF-0.09054803848266602
aF-0.23926210403442383
aF-0.05824995040893555
aF0.21032725274562836
aF-0.07665801048278809
aF-0.00575238885357976
aF-0.013422664254903793
aa(lp6
F-0.23926210403442383
aF0.14883995056152344
aF0.21173405647277832
aF-0.09054803848266602
aF-0.23926210403442383
aF-0.05824995040893555
aF0.2118614763021469
aF-0.07665801048278809
aF-0.00575238885357976
aF-0.013422664254903793
aa(lp7
F-0.23926210403442383
aF0.14883995056152344
aF0.21173405647277832
aF-0.09054803848266602
aF-0.23926210403442383
aF-0.056715965270996094
aF0.2118614763021469
aF-0.07665801048278809
aF-0.00575238885357976
aF-0.013422664254903793
aa(lp8
F-0.23926210403442383
aF0.14730596542358398
aF0.21173405647277832
aF-0.09054803848266602
aF-0.23926210403442383
aF-0.05824995040893555
aF0.2118614763021469
aF-0.07665801048278809
aF-0.005944077391177416
aF-0.013422664254903793
aa(lp9
F-0.23926210403442383
aF0.14883995056152344
aF0.21173405647277832
aF-0.09054803848266602
aF-0.23926210403442383
aF-0.056715965270996094
aF0.2118614763021469
aF-0.07665801048278809
aF-0.006135765928775072
aF-0.011696990579366684
aa(lp10
F-0.24079608917236328
aF0.14883995056152344
aF0.21173405647277832
aF-0.09054803848266602
aF-0.23926210403442383
aF-0.056715965270996094
aF0.2118614763021469
aF-0.07665801048278809
aF-0.007669751066714525
aF-0.015531715005636215
aa(lp11
F-0.23926210403442383
aF0.0583338737487793
aF0.21173405647277832
aF-0.07980990409851074
aF-0.23926210403442383
aF-0.1487560272216797
aF0.2118614763021469
aF-0.08893013000488281
aF0.010546383447945118
aF-0.017257388681173325
aa.